target datalayout = "e-m:e-p270:32:32-p271:32:32-p272:64:64-i64:64-i128:128-f80:128-n8:16:32:64-S128"
target triple = "x86_64-pc-linux-gnu"

%struct.view_t = type { ptr, ptr, %struct.lv_style_t, %struct.lv_style_t, %struct.anon }
%struct.lv_style_t = type { ptr, i32, i8 }
%struct.anon = type { ptr, %struct.anon.0, %struct.anon.4 }
%struct.anon.0 = type { ptr, %struct.anon.1, %struct.anon.2, %struct.anon.3 }
%struct.anon.1 = type { ptr, ptr, ptr }
%struct.anon.2 = type { ptr, ptr, ptr, ptr }
%struct.anon.3 = type { ptr, ptr, ptr, ptr, ptr, ptr, ptr, ptr, ptr, ptr, ptr, ptr, ptr, ptr, ptr, ptr, ptr }
%struct.anon.4 = type { ptr, ptr, ptr }

@flex_align_map = internal constant [6 x i32] [i32 0, i32 1, i32 2, i32 3, i32 4, i32 5], align 16

; Function Attrs: nounwind uwtable
define internal void @flex_align_track_event_handler(ptr noundef %0) #0 {
  %2 = alloca ptr, align 8
  %3 = alloca ptr, align 8
  %4 = alloca ptr, align 8
  %5 = alloca i16, align 2
  store ptr %0, ptr %2, align 8, !tbaa !20
  call void @llvm.lifetime.start.p0(i64 8, ptr %3) #4
  %6 = load ptr, ptr %2, align 8, !tbaa !20
  %7 = call ptr @lv_event_get_user_data(ptr noundef %6)
  store ptr %7, ptr %3, align 8, !tbaa !3
  call void @llvm.lifetime.start.p0(i64 8, ptr %4) #4
  %8 = load ptr, ptr %2, align 8, !tbaa !20
  %9 = call ptr @lv_event_get_target(ptr noundef %8)
  store ptr %9, ptr %4, align 8, !tbaa !22
  call void @llvm.lifetime.start.p0(i64 2, ptr %5) #4
  %10 = load ptr, ptr %4, align 8, !tbaa !22
  %11 = call i32 @lv_dropdown_get_selected(ptr noundef %10)
  %12 = trunc i32 %11 to i16
  store i16 %12, ptr %5, align 2, !tbaa !23
  %13 = load ptr, ptr %3, align 8, !tbaa !3
  %14 = getelementptr inbounds nuw %struct.view_t, ptr %13, i32 0, i32 1
  %15 = load ptr, ptr %14, align 8, !tbaa !25
  %16 = icmp ne ptr %15, null
  br i1 %16, label %17, label %25

17:                                               ; preds = %1
  %18 = load ptr, ptr %3, align 8, !tbaa !3
  %19 = getelementptr inbounds nuw %struct.view_t, ptr %18, i32 0, i32 1
  %20 = load ptr, ptr %19, align 8, !tbaa !25
  %21 = load i16, ptr %5, align 2, !tbaa !23
  %22 = zext i16 %21 to i64
  %23 = getelementptr inbounds nuw [6 x i32], ptr @flex_align_map, i64 0, i64 %22
  %24 = load i32, ptr %23, align 4, !tbaa !26
  call void @lv_obj_set_style_flex_track_place(ptr noundef %20, i32 noundef %24, i32 noundef 0)
  br label %25

25:                                               ; preds = %17, %1
  call void @llvm.lifetime.end.p0(i64 2, ptr %5) #4
  call void @llvm.lifetime.end.p0(i64 8, ptr %4) #4
  call void @llvm.lifetime.end.p0(i64 8, ptr %3) #4
  ret void
}