; Function Attrs: nounwind uwtable
define internal void @flex_align_track_event_handler(ptr noundef %0) #0 {
  %2 = tail call ptr @lv_event_get_user_data(ptr noundef %0) #2
  %3 = tail call ptr @lv_event_get_target(ptr noundef %0) #2
  %4 = tail call i32 @lv_dropdown_get_selected(ptr noundef %3) #2
  %5 = getelementptr inbounds nuw i8, ptr %2, i64 8
  %6 = load ptr, ptr %5, align 8, !tbaa !19
  %.not = icmp eq ptr %6, null
  br i1 %.not, label %12, label %7

7:                                                ; preds = %1
  %8 = and i32 %4, 65535
  %9 = zext nneg i32 %8 to i64
  %10 = getelementptr inbounds nuw [6 x i32], ptr @flex_align_map, i64 0, i64 %9
  %11 = load i32, ptr %10, align 4, !tbaa !20
  tail call void @lv_obj_set_style_flex_track_place(ptr noundef nonnull %6, i32 noundef %11, i32 noundef 0) #2
  br label %12

12:                                               ; preds = %7, %1
  ret void
}